target datalayout = "e-m:e-p270:32:32-p271:32:32-p272:64:64-i64:64-i128:128-f80:128-n8:16:32:64-S128"
target triple = "x86_64-pc-linux-gnu"

%struct.FFTextReader = type { i32, ptr, [8 x i8], i32, i32, %struct.FFIOContext }
%struct.FFIOContext = type { %struct.AVIOContext, ptr, i32, i32, i64, i64, i64, i64, i32, i32, i32, i64 }
%struct.AVIOContext = type { ptr, ptr, i32, ptr, ptr, ptr, ptr, ptr, ptr, i64, i32, i32, i32, i32, i32, i64, ptr, ptr, ptr, ptr, i32, i32, ptr, ptr, ptr, i32, ptr, i64, i64 }

; Function Attrs: nounwind uwtable
define i32 @ff_text_peek_r8(ptr noundef %0) #0 {
  %2 = alloca i32, align 4
  %3 = alloca ptr, align 8
  %4 = alloca i32, align 4
  %5 = alloca i32, align 4
  store ptr %0, ptr %3, align 8, !tbaa !4
  call void @llvm.lifetime.start.p0(i64 4, ptr %4) #9
  %6 = load ptr, ptr %3, align 8, !tbaa !4
  %7 = getelementptr inbounds nuw %struct.FFTextReader, ptr %6, i32 0, i32 3
  %8 = load i32, ptr %7, align 8, !tbaa !19
  %9 = load ptr, ptr %3, align 8, !tbaa !4
  %10 = getelementptr inbounds nuw %struct.FFTextReader, ptr %9, i32 0, i32 4
  %11 = load i32, ptr %10, align 4, !tbaa !18
  %12 = icmp slt i32 %8, %11
  br i1 %12, label %13, label %23

13:                                               ; preds = %1
  %14 = load ptr, ptr %3, align 8, !tbaa !4
  %15 = getelementptr inbounds nuw %struct.FFTextReader, ptr %14, i32 0, i32 2
  %16 = load ptr, ptr %3, align 8, !tbaa !4
  %17 = getelementptr inbounds nuw %struct.FFTextReader, ptr %16, i32 0, i32 3
  %18 = load i32, ptr %17, align 8, !tbaa !19
  %19 = sext i32 %18 to i64
  %20 = getelementptr inbounds [8 x i8], ptr %15, i64 0, i64 %19
  %21 = load i8, ptr %20, align 1, !tbaa !22
  %22 = zext i8 %21 to i32
  store i32 %22, ptr %2, align 4
  store i32 1, ptr %5, align 4
  br label %43

23:                                               ; preds = %1
  %24 = load ptr, ptr %3, align 8, !tbaa !4
  %25 = call i32 @ff_text_r8(ptr noundef %24)
  store i32 %25, ptr %4, align 4, !tbaa !21
  %26 = load ptr, ptr %3, align 8, !tbaa !4
  %27 = getelementptr inbounds nuw %struct.FFTextReader, ptr %26, i32 0, i32 1
  %28 = load ptr, ptr %27, align 8, !tbaa !10
  %29 = call i32 @avio_feof(ptr noundef %28)
  %30 = icmp ne i32 %29, 0
  br i1 %30, label %41, label %31

31:                                               ; preds = %23
  %32 = load ptr, ptr %3, align 8, !tbaa !4
  %33 = getelementptr inbounds nuw %struct.FFTextReader, ptr %32, i32 0, i32 3
  store i32 0, ptr %33, align 8, !tbaa !19
  %34 = load ptr, ptr %3, align 8, !tbaa !4
  %35 = getelementptr inbounds nuw %struct.FFTextReader, ptr %34, i32 0, i32 4
  store i32 1, ptr %35, align 4, !tbaa !18
  %36 = load i32, ptr %4, align 4, !tbaa !21
  %37 = trunc i32 %36 to i8
  %38 = load ptr, ptr %3, align 8, !tbaa !4
  %39 = getelementptr inbounds nuw %struct.FFTextReader, ptr %38, i32 0, i32 2
  %40 = getelementptr inbounds [8 x i8], ptr %39, i64 0, i64 0
  store i8 %37, ptr %40, align 8, !tbaa !22
  br label %41

41:                                               ; preds = %31, %23
  %42 = load i32, ptr %4, align 4, !tbaa !21
  store i32 %42, ptr %2, align 4
  store i32 1, ptr %5, align 4
  br label %43

43:                                               ; preds = %41, %13
  call void @llvm.lifetime.end.p0(i64 4, ptr %4) #9
  %44 = load i32, ptr %2, align 4
  ret i32 %44
}

; Function Attrs: nounwind uwtable
define i32 @ff_text_eof(ptr noundef %0) #0 {
  %2 = alloca ptr, align 8
  store ptr %0, ptr %2, align 8, !tbaa !4
  %3 = load ptr, ptr %2, align 8, !tbaa !4
  %4 = getelementptr inbounds nuw %struct.FFTextReader, ptr %3, i32 0, i32 3
  %5 = load i32, ptr %4, align 8, !tbaa !19
  %6 = load ptr, ptr %2, align 8, !tbaa !4
  %7 = getelementptr inbounds nuw %struct.FFTextReader, ptr %6, i32 0, i32 4
  %8 = load i32, ptr %7, align 4, !tbaa !18
  %9 = icmp sge i32 %5, %8
  br i1 %9, label %10, label %16

10:                                               ; preds = %1
  %11 = load ptr, ptr %2, align 8, !tbaa !4
  %12 = getelementptr inbounds nuw %struct.FFTextReader, ptr %11, i32 0, i32 1
  %13 = load ptr, ptr %12, align 8, !tbaa !10
  %14 = call i32 @avio_feof(ptr noundef %13)
  %15 = icmp ne i32 %14, 0
  br label %16

16:                                               ; preds = %10, %1
  %17 = phi i1 [ false, %1 ], [ %15, %10 ]
  %18 = zext i1 %17 to i32
  ret i32 %18
}

; Function Attrs: nounwind uwtable
define i64 @ff_subtitles_read_line(ptr noundef %0, ptr noundef %1, i64 noundef %2) #0 {
  %4 = alloca i64, align 8
  %5 = alloca ptr, align 8
  %6 = alloca ptr, align 8
  %7 = alloca i64, align 8
  %8 = alloca i64, align 8
  %9 = alloca i32, align 4
  %10 = alloca i8, align 1
  store ptr %0, ptr %5, align 8, !tbaa !4
  store ptr %1, ptr %6, align 8, !tbaa !27
  store i64 %2, ptr %7, align 8, !tbaa !25
  call void @llvm.lifetime.start.p0(i64 8, ptr %8) #9
  store i64 0, ptr %8, align 8, !tbaa !25
  %11 = load i64, ptr %7, align 8, !tbaa !25
  %12 = icmp ne i64 %11, 0
  br i1 %12, label %14, label %13

13:                                               ; preds = %3
  store i64 0, ptr %4, align 8
  store i32 1, ptr %9, align 4
  br label %75

14:                                               ; preds = %3
  %15 = load ptr, ptr %6, align 8, !tbaa !27
  %16 = getelementptr inbounds i8, ptr %15, i64 0
  store i8 0, ptr %16, align 1, !tbaa !22
  br label %17

17:                                               ; preds = %57, %14
  %18 = load i64, ptr %8, align 8, !tbaa !25
  %19 = add i64 %18, 1
  %20 = load i64, ptr %7, align 8, !tbaa !25
  %21 = icmp ult i64 %19, %20
  br i1 %21, label %22, label %58

22:                                               ; preds = %17
  call void @llvm.lifetime.start.p0(i64 1, ptr %10) #9
  %23 = load ptr, ptr %5, align 8, !tbaa !4
  %24 = call i32 @ff_text_r8(ptr noundef %23)
  %25 = trunc i32 %24 to i8
  store i8 %25, ptr %10, align 1, !tbaa !22
  %26 = load i8, ptr %10, align 1, !tbaa !22
  %27 = icmp ne i8 %26, 0
  br i1 %27, label %37, label %28

28:                                               ; preds = %22
  %29 = load ptr, ptr %5, align 8, !tbaa !4
  %30 = call i32 @ff_text_eof(ptr noundef %29)
  %31 = icmp ne i32 %30, 0
  br i1 %31, label %32, label %34

32:                                               ; preds = %28
  %33 = load i64, ptr %8, align 8, !tbaa !25
  br label %35

34:                                               ; preds = %28
  br label %35

35:                                               ; preds = %34, %32
  %36 = phi i64 [ %33, %32 ], [ -1094995529, %34 ]
  store i64 %36, ptr %4, align 8
  store i32 1, ptr %9, align 4
  br label %55

37:                                               ; preds = %22
  %38 = load i8, ptr %10, align 1, !tbaa !22
  %39 = zext i8 %38 to i32
  %40 = icmp eq i32 %39, 13
  br i1 %40, label %45, label %41

41:                                               ; preds = %37
  %42 = load i8, ptr %10, align 1, !tbaa !22
  %43 = zext i8 %42 to i32
  %44 = icmp eq i32 %43, 10
  br i1 %44, label %45, label %46

45:                                               ; preds = %41, %37
  store i32 3, ptr %9, align 4
  br label %55

46:                                               ; preds = %41
  %47 = load i8, ptr %10, align 1, !tbaa !22
  %48 = load ptr, ptr %6, align 8, !tbaa !27
  %49 = load i64, ptr %8, align 8, !tbaa !25
  %50 = add i64 %49, 1
  store i64 %50, ptr %8, align 8, !tbaa !25
  %51 = getelementptr inbounds nuw i8, ptr %48, i64 %49
  store i8 %47, ptr %51, align 1, !tbaa !22
  %52 = load ptr, ptr %6, align 8, !tbaa !27
  %53 = load i64, ptr %8, align 8, !tbaa !25
  %54 = getelementptr inbounds nuw i8, ptr %52, i64 %53
  store i8 0, ptr %54, align 1, !tbaa !22
  store i32 0, ptr %9, align 4
  br label %55

55:                                               ; preds = %46, %45, %35
  call void @llvm.lifetime.end.p0(i64 1, ptr %10) #9
  %56 = load i32, ptr %9, align 4
  switch i32 %56, label %75 [
    i32 0, label %57
    i32 3, label %58
  ]

57:                                               ; preds = %55
  br label %17, !llvm.loop !83

58:                                               ; preds = %55, %17
  br label %59

59:                                               ; preds = %63, %58
  %60 = load ptr, ptr %5, align 8, !tbaa !4
  %61 = call i32 @ff_text_peek_r8(ptr noundef %60)
  %62 = icmp eq i32 %61, 13
  br i1 %62, label %63, label %66

63:                                               ; preds = %59
  %64 = load ptr, ptr %5, align 8, !tbaa !4
  %65 = call i32 @ff_text_r8(ptr noundef %64)
  br label %59, !llvm.loop !84

66:                                               ; preds = %59
  %67 = load ptr, ptr %5, align 8, !tbaa !4
  %68 = call i32 @ff_text_peek_r8(ptr noundef %67)
  %69 = icmp eq i32 %68, 10
  br i1 %69, label %70, label %73

70:                                               ; preds = %66
  %71 = load ptr, ptr %5, align 8, !tbaa !4
  %72 = call i32 @ff_text_r8(ptr noundef %71)
  br label %73

73:                                               ; preds = %70, %66
  %74 = load i64, ptr %8, align 8, !tbaa !25
  store i64 %74, ptr %4, align 8
  store i32 1, ptr %9, align 4
  br label %75

75:                                               ; preds = %73, %55, %13
  call void @llvm.lifetime.end.p0(i64 8, ptr %8) #9
  %76 = load i64, ptr %4, align 8
  ret i64 %76
}