; Function Attrs: nounwind uwtable
define i64 @ff_subtitles_read_line(ptr noundef captures(none) %0, ptr noundef writeonly captures(none) %1, i64 noundef %2) local_unnamed_addr #0 {
  %.not = icmp eq i64 %2, 0
  br i1 %.not, label %.thread, label %4

4:                                                ; preds = %3
  store i8 0, ptr %1, align 1, !tbaa !19
  %.not54 = icmp eq i64 %2, 1
  br i1 %.not54, label %.thread42, label %.lr.ph

.lr.ph:                                           ; preds = %4, %16
  %5 = phi i64 [ %19, %16 ], [ 1, %4 ]
  %.02449 = phi i64 [ %5, %16 ], [ 0, %4 ]
  %6 = tail call i32 @ff_text_r8(ptr noundef %0)
  %7 = trunc i32 %6 to i8
  switch i8 %7, label %16 [
    i8 0, label %8
    i8 13, label %.thread42
    i8 10, label %.thread42
  ]

8:                                                ; preds = %.lr.ph
  %9 = getelementptr inbounds nuw i8, ptr %0, i64 24
  %10 = load i32, ptr %9, align 8, !tbaa !17
  %11 = getelementptr inbounds nuw i8, ptr %0, i64 28
  %12 = load i32, ptr %11, align 4, !tbaa !16
  %.not.i = icmp slt i32 %10, %12
  br i1 %.not.i, label %ff_text_eof.exit.thread, label %ff_text_eof.exit

ff_text_eof.exit:                                 ; preds = %8
  %13 = getelementptr inbounds nuw i8, ptr %0, i64 8
  %14 = load ptr, ptr %13, align 8, !tbaa !4
  %15 = tail call i32 @avio_feof(ptr noundef %14) #11
  %.fr = freeze i32 %15
  %.not46 = icmp eq i32 %.fr, 0
  br i1 %.not46, label %ff_text_eof.exit.thread, label %.thread

ff_text_eof.exit.thread:                          ; preds = %8, %ff_text_eof.exit
  br label %.thread

16:                                               ; preds = %.lr.ph
  %17 = getelementptr inbounds nuw i8, ptr %1, i64 %.02449
  store i8 %7, ptr %17, align 1, !tbaa !19
  %18 = getelementptr inbounds nuw i8, ptr %1, i64 %5
  store i8 0, ptr %18, align 1, !tbaa !19
  %19 = add nuw i64 %5, 1
  %exitcond.not = icmp eq i64 %19, %2
  br i1 %exitcond.not, label %.thread42, label %.lr.ph

.thread42:                                        ; preds = %16, %.lr.ph, %.lr.ph, %4
  %.024.lcssa = phi i64 [ 0, %4 ], [ %5, %16 ], [ %.02449, %.lr.ph ], [ %.02449, %.lr.ph ]
  %20 = getelementptr inbounds nuw i8, ptr %0, i64 24
  %21 = getelementptr inbounds nuw i8, ptr %0, i64 28
  %22 = getelementptr inbounds nuw i8, ptr %0, i64 8
  %23 = getelementptr inbounds nuw i8, ptr %0, i64 16
  br label %24

24:                                               ; preds = %40, %.thread42
  %25 = load i32, ptr %20, align 8, !tbaa !17
  %26 = load i32, ptr %21, align 4, !tbaa !16
  %27 = icmp slt i32 %25, %26
  br i1 %27, label %28, label %33

28:                                               ; preds = %24
  %29 = sext i32 %25 to i64
  %30 = getelementptr inbounds [8 x i8], ptr %23, i64 0, i64 %29
  %31 = load i8, ptr %30, align 1, !tbaa !19
  %32 = zext i8 %31 to i32
  br label %ff_text_peek_r8.exit

33:                                               ; preds = %24
  %34 = tail call i32 @ff_text_r8(ptr noundef nonnull %0)
  %35 = load ptr, ptr %22, align 8, !tbaa !4
  %36 = tail call i32 @avio_feof(ptr noundef %35) #11
  %.not.i32 = icmp eq i32 %36, 0
  br i1 %.not.i32, label %37, label %ff_text_peek_r8.exit

37:                                               ; preds = %33
  store i32 0, ptr %20, align 8, !tbaa !17
  store i32 1, ptr %21, align 4, !tbaa !16
  %38 = trunc i32 %34 to i8
  store i8 %38, ptr %23, align 8, !tbaa !19
  br label %ff_text_peek_r8.exit

ff_text_peek_r8.exit:                             ; preds = %28, %33, %37
  %.0.i = phi i32 [ %32, %28 ], [ %34, %37 ], [ %34, %33 ]
  %39 = icmp eq i32 %.0.i, 13
  br i1 %39, label %40, label %42

40:                                               ; preds = %ff_text_peek_r8.exit
  %41 = tail call i32 @ff_text_r8(ptr noundef nonnull %0)
  br label %24, !llvm.loop !69

42:                                               ; preds = %ff_text_peek_r8.exit
  %43 = load i32, ptr %20, align 8, !tbaa !17
  %44 = load i32, ptr %21, align 4, !tbaa !16
  %45 = icmp slt i32 %43, %44
  br i1 %45, label %46, label %51

46:                                               ; preds = %42
  %47 = sext i32 %43 to i64
  %48 = getelementptr inbounds [8 x i8], ptr %23, i64 0, i64 %47
  %49 = load i8, ptr %48, align 1, !tbaa !19
  %50 = zext i8 %49 to i32
  br label %ff_text_peek_r8.exit35

51:                                               ; preds = %42
  %52 = tail call i32 @ff_text_r8(ptr noundef nonnull %0)
  %53 = load ptr, ptr %22, align 8, !tbaa !4
  %54 = tail call i32 @avio_feof(ptr noundef %53) #11
  %.not.i33 = icmp eq i32 %54, 0
  br i1 %.not.i33, label %55, label %ff_text_peek_r8.exit35

55:                                               ; preds = %51
  store i32 0, ptr %20, align 8, !tbaa !17
  store i32 1, ptr %21, align 4, !tbaa !16
  %56 = trunc i32 %52 to i8
  store i8 %56, ptr %23, align 8, !tbaa !19
  br label %ff_text_peek_r8.exit35

ff_text_peek_r8.exit35:                           ; preds = %46, %51, %55
  %.0.i34 = phi i32 [ %50, %46 ], [ %52, %55 ], [ %52, %51 ]
  %57 = icmp eq i32 %.0.i34, 10
  br i1 %57, label %58, label %.thread

58:                                               ; preds = %ff_text_peek_r8.exit35
  %59 = tail call i32 @ff_text_r8(ptr noundef nonnull %0)
  br label %.thread

.thread:                                          ; preds = %ff_text_eof.exit.thread, %ff_text_eof.exit, %ff_text_peek_r8.exit35, %58, %3
  %.0 = phi i64 [ 0, %3 ], [ %.024.lcssa, %58 ], [ %.024.lcssa, %ff_text_peek_r8.exit35 ], [ %.02449, %ff_text_eof.exit ], [ -1094995529, %ff_text_eof.exit.thread ]
  ret i64 %.0
}